; Function Attrs: null_pointer_is_valid sspstrong uwtable
define internal fastcc void @dissect_tlv_ip_multicast_tunnel(ptr noundef %0, i32 noundef %1, ptr noundef %2, i32 noundef range(i32 0, 2147483644) %3) unnamed_addr #0 {
  %5 = load i32, ptr @ett_ldp_tlv_val, align 4
  %6 = tail call ptr @proto_tree_add_subtree(ptr noundef %2, ptr noundef %0, i32 noundef %1, i32 noundef %3, i32 noundef %5, ptr noundef null, ptr noundef nonnull @.str.1115)
  %7 = load i32, ptr @hf_ldp_tlv_ip_multicast_srcaddr, align 4
  %8 = tail call ptr @proto_tree_add_item(ptr noundef %6, i32 noundef %7, ptr noundef %0, i32 noundef %1, i32 noundef 4, i32 noundef 0)
  %9 = load i32, ptr @hf_ldp_tlv_ip_multicast_mltcstaddr, align 4
  %10 = add i32 %1, 4
  %11 = tail call ptr @proto_tree_add_item(ptr noundef %6, i32 noundef %9, ptr noundef %0, i32 noundef %10, i32 noundef 4, i32 noundef 0)
  ret void
}